; Function Attrs: nounwind uwtable
define range(i32 -1, 1) i32 @H5C_set_prefix(ptr noundef %0, ptr noundef readonly captures(address_is_null) %1) local_unnamed_addr #0 {
  %3 = load i8, ptr @H5C_init_g, align 1, !tbaa !3, !range !7, !noundef !8
  %4 = trunc nuw i8 %3 to i1
  %5 = load i8, ptr @H5_libterm_g, align 1, !range !7
  %6 = trunc nuw i8 %5 to i1
  %7 = select i1 %4, i1 true, i1 %6
  br i1 %7, label %8, label %.thread, !prof !9

.thread:                                          ; preds = %2
  store i8 1, ptr @H5C_init_g, align 1, !tbaa !3
  br label %11

8:                                                ; preds = %2
  %9 = xor i1 %6, true
  %10 = select i1 %4, i1 true, i1 %9
  br i1 %10, label %11, label %25, !prof !10

11:                                               ; preds = %.thread, %8
  %12 = icmp eq ptr %0, null
  %13 = icmp eq ptr %1, null
  %or.cond = or i1 %12, %13
  br i1 %or.cond, label %17, label %14

14:                                               ; preds = %11
  %15 = tail call i64 @strlen(ptr noundef nonnull dereferenceable(1) %1) #7
  %16 = icmp ugt i64 %15, 31
  br i1 %16, label %17, label %21

17:                                               ; preds = %11, %14
  %18 = load i64, ptr @H5E_CACHE_g, align 8, !tbaa !11
  %19 = load i64, ptr @H5E_SYSTEM_g, align 8, !tbaa !11
  %20 = tail call i32 (ptr, ptr, i32, i64, i64, ptr, ...) @H5E_printf_stack(ptr noundef nonnull @.str, ptr noundef nonnull @__func__.H5C_set_prefix, i32 noundef 322, i64 noundef %18, i64 noundef %19, ptr noundef nonnull @.str.1) #8
  br label %25

21:                                               ; preds = %14
  %22 = getelementptr inbounds nuw i8, ptr %0, i64 527722
  %23 = tail call ptr @strncpy(ptr noundef nonnull dereferenceable(1) %22, ptr noundef nonnull dereferenceable(1) %1, i64 noundef 32) #8
  %24 = getelementptr inbounds nuw i8, ptr %0, i64 527753
  store i8 0, ptr %24, align 1, !tbaa !13
  br label %25

25:                                               ; preds = %17, %21, %8
  %.0 = phi i32 [ -1, %17 ], [ 0, %21 ], [ 0, %8 ]
  ret i32 %.0
}